target datalayout = "e-m:e-p270:32:32-p271:32:32-p272:64:64-i64:64-i128:128-f80:128-n8:16:32:64-S128"
target triple = "x86_64-pc-linux-gnu"

; Function Attrs: alwaysinline nounwind uwtable
define internal zeroext i1 @ResamplerAdd(i64 noundef %0, i64 noundef %1, ptr noundef %2) #3 {
  %4 = alloca i1, align 1
  %5 = alloca i64, align 8
  %6 = alloca i64, align 8
  %7 = alloca ptr, align 8
  store i64 %0, ptr %5, align 8
  store i64 %1, ptr %6, align 8
  store ptr %2, ptr %7, align 8
  %8 = load i64, ptr %6, align 8
  %9 = icmp sgt i64 %8, 0
  br i1 %9, label %10, label %16

10:                                               ; preds = %3
  %11 = load i64, ptr %5, align 8
  %12 = load i64, ptr %6, align 8
  %13 = sub nsw i64 9223372036854775807, %12
  %14 = icmp sgt i64 %11, %13
  br i1 %14, label %15, label %16

15:                                               ; preds = %10
  store i1 false, ptr %4, align 1
  br label %21

16:                                               ; preds = %10, %3
  %17 = load i64, ptr %5, align 8
  %18 = load i64, ptr %6, align 8
  %19 = add nsw i64 %17, %18
  %20 = load ptr, ptr %7, align 8
  store i64 %19, ptr %20, align 8
  store i1 true, ptr %4, align 1
  br label %21

21:                                               ; preds = %16, %15
  %22 = load i1, ptr %4, align 1
  ret i1 %22
}

; Function Attrs: alwaysinline nounwind uwtable
define internal zeroext i1 @ResamplerMul(i64 noundef %0, i64 noundef %1, ptr noundef %2) #3 {
  %4 = alloca i1, align 1
  %5 = alloca i64, align 8
  %6 = alloca i64, align 8
  %7 = alloca ptr, align 8
  store i64 %0, ptr %5, align 8
  store i64 %1, ptr %6, align 8
  store ptr %2, ptr %7, align 8
  %8 = load i64, ptr %6, align 8
  %9 = icmp sgt i64 %8, 0
  br i1 %9, label %10, label %16

10:                                               ; preds = %3
  %11 = load i64, ptr %5, align 8
  %12 = load i64, ptr %6, align 8
  %13 = sdiv i64 9223372036854775807, %12
  %14 = icmp sgt i64 %11, %13
  br i1 %14, label %15, label %16

15:                                               ; preds = %10
  store i1 false, ptr %4, align 1
  br label %21

16:                                               ; preds = %10, %3
  %17 = load i64, ptr %5, align 8
  %18 = load i64, ptr %6, align 8
  %19 = mul nsw i64 %17, %18
  %20 = load ptr, ptr %7, align 8
  store i64 %19, ptr %20, align 8
  store i1 true, ptr %4, align 1
  br label %21

21:                                               ; preds = %16, %15
  %22 = load i1, ptr %4, align 1
  ret i1 %22
}

; Function Attrs: nounwind uwtable
define hidden i64 @SDL_GetResamplerOutputFrames(i64 noundef %0, i64 noundef %1, ptr noundef %2) #0 {
  %4 = alloca i64, align 8
  %5 = alloca i64, align 8
  %6 = alloca ptr, align 8
  %7 = alloca i64, align 8
  %8 = alloca i64, align 8
  %9 = alloca i64, align 8
  store i64 %0, ptr %4, align 8
  store i64 %1, ptr %5, align 8
  store ptr %2, ptr %6, align 8
  call void @llvm.lifetime.start.p0(i64 8, ptr %7) #6
  %10 = load ptr, ptr %6, align 8
  %11 = load i64, ptr %10, align 8
  store i64 %11, ptr %7, align 8
  call void @llvm.lifetime.start.p0(i64 8, ptr %8) #6
  %12 = load i64, ptr %4, align 8
  %13 = call zeroext i1 @ResamplerMul(i64 noundef %12, i64 noundef 4294967296, ptr noundef %8)
  br i1 %13, label %14, label %19

14:                                               ; preds = %3
  %15 = load i64, ptr %8, align 8
  %16 = load i64, ptr %7, align 8
  %17 = sub nsw i64 0, %16
  %18 = call zeroext i1 @ResamplerAdd(i64 noundef %15, i64 noundef %17, ptr noundef %8)
  br i1 %18, label %20, label %19

19:                                               ; preds = %14, %3
  store i64 9223372036854775807, ptr %8, align 8
  br label %20

20:                                               ; preds = %19, %14
  call void @llvm.lifetime.start.p0(i64 8, ptr %9) #6
  %21 = load i64, ptr %8, align 8
  %22 = icmp sgt i64 %21, 0
  br i1 %22, label %23, label %29

23:                                               ; preds = %20
  %24 = load i64, ptr %8, align 8
  %25 = sub nsw i64 %24, 1
  %26 = load i64, ptr %5, align 8
  %27 = sdiv i64 %25, %26
  %28 = add nsw i64 %27, 1
  br label %30

29:                                               ; preds = %20
  br label %30

30:                                               ; preds = %29, %23
  %31 = phi i64 [ %28, %23 ], [ 0, %29 ]
  store i64 %31, ptr %9, align 8
  %32 = load i64, ptr %9, align 8
  %33 = load i64, ptr %5, align 8
  %34 = mul nsw i64 %32, %33
  %35 = load i64, ptr %8, align 8
  %36 = sub nsw i64 %34, %35
  %37 = load ptr, ptr %6, align 8
  store i64 %36, ptr %37, align 8
  %38 = load i64, ptr %9, align 8
  call void @llvm.lifetime.end.p0(i64 8, ptr %9) #6
  call void @llvm.lifetime.end.p0(i64 8, ptr %8) #6
  call void @llvm.lifetime.end.p0(i64 8, ptr %7) #6
  ret i64 %38
}