; Function Attrs: mustprogress nofree norecurse nosync nounwind willreturn memory(argmem: readwrite) uwtable
define hidden range(i64 -9223372036854775805, -9223372036854775808) i64 @SDL_GetResamplerOutputFrames(i64 noundef %0, i64 noundef %1, ptr noundef captures(none) %2) local_unnamed_addr #4 {
  %4 = icmp sgt i64 %0, 2147483647
  br i1 %4, label %ResamplerMul.exit.thread15, label %5

5:                                                ; preds = %3
  %6 = load i64, ptr %2, align 8
  %7 = shl nsw i64 %0, 32
  %8 = icmp slt i64 %6, 0
  %9 = add nsw i64 %6, 9223372036854775807
  %10 = icmp sgt i64 %7, %9
  %or.cond.i = select i1 %8, i1 %10, i1 false
  br i1 %or.cond.i, label %ResamplerMul.exit.thread15, label %ResamplerMul.exit

ResamplerMul.exit:                                ; preds = %5
  %11 = sub nsw i64 %7, %6
  %12 = icmp sgt i64 %11, 0
  br i1 %12, label %ResamplerMul.exit.thread15, label %16

ResamplerMul.exit.thread15:                       ; preds = %3, %5, %ResamplerMul.exit
  %.017 = phi i64 [ %11, %ResamplerMul.exit ], [ 9223372036854775807, %5 ], [ 9223372036854775807, %3 ]
  %13 = add nsw i64 %.017, -1
  %14 = sdiv i64 %13, %1
  %15 = add nsw i64 %14, 1
  br label %16

16:                                               ; preds = %ResamplerMul.exit, %ResamplerMul.exit.thread15
  %.018 = phi i64 [ %.017, %ResamplerMul.exit.thread15 ], [ %11, %ResamplerMul.exit ]
  %17 = phi i64 [ %15, %ResamplerMul.exit.thread15 ], [ 0, %ResamplerMul.exit ]
  %18 = mul nsw i64 %17, %1
  %19 = sub nsw i64 %18, %.018
  store i64 %19, ptr %2, align 8
  ret i64 %17
}